; Function Attrs: nounwind uwtable
define noundef ptr @Vga_ManDeriveCex(ptr noundef readonly captures(none) %0) local_unnamed_addr #0 {
  %2 = load ptr, ptr %0, align 8, !tbaa !30
  %3 = getelementptr i8, ptr %2, i64 16
  %.val = load i32, ptr %3, align 8, !tbaa !40
  %4 = getelementptr i8, ptr %2, i64 64
  %.val29 = load ptr, ptr %4, align 8, !tbaa !54
  %5 = getelementptr i8, ptr %.val29, i64 4
  %.val29.val = load i32, ptr %5, align 4, !tbaa !15
  %6 = sub nsw i32 %.val29.val, %.val
  %7 = getelementptr inbounds nuw i8, ptr %0, i64 8
  %8 = load ptr, ptr %7, align 8, !tbaa !55
  %9 = getelementptr inbounds nuw i8, ptr %8, i64 120
  %10 = load i32, ptr %9, align 8, !tbaa !56
  %11 = add nsw i32 %10, 1
  %12 = tail call ptr @Abc_CexAlloc(i32 noundef %.val, i32 noundef %6, i32 noundef %11) #28
  store i32 0, ptr %12, align 4, !tbaa !58
  %13 = load ptr, ptr %7, align 8, !tbaa !55
  %14 = getelementptr inbounds nuw i8, ptr %13, i64 120
  %15 = load i32, ptr %14, align 8, !tbaa !56
  %16 = getelementptr inbounds nuw i8, ptr %12, i64 4
  store i32 %15, ptr %16, align 4, !tbaa !60
  %17 = getelementptr inbounds nuw i8, ptr %0, i64 16
  %18 = load i32, ptr %17, align 8, !tbaa !61
  %19 = icmp sgt i32 %18, 1
  br i1 %19, label %.lr.ph, label %.critedge

.lr.ph:                                           ; preds = %1
  %20 = getelementptr inbounds nuw i8, ptr %0, i64 40
  %21 = load ptr, ptr %20, align 8, !tbaa !62
  %22 = load ptr, ptr %0, align 8, !tbaa !30
  %23 = getelementptr i8, ptr %22, i64 32
  %.val30 = load ptr, ptr %23, align 8, !tbaa !63
  %.not25 = icmp eq ptr %.val30, null
  %24 = getelementptr i8, ptr %22, i64 16
  %25 = getelementptr i8, ptr %22, i64 64
  %26 = getelementptr inbounds nuw i8, ptr %0, i64 120
  %27 = getelementptr inbounds nuw i8, ptr %12, i64 20
  %28 = getelementptr inbounds nuw i8, ptr %12, i64 8
  %29 = getelementptr inbounds nuw i8, ptr %12, i64 12
  br i1 %.not25, label %.critedge, label %.lr.ph.split

.lr.ph.split:                                     ; preds = %.lr.ph, %Gia_ObjIsPi.exit.thread
  %30 = phi i32 [ %61, %Gia_ObjIsPi.exit.thread ], [ %18, %.lr.ph ]
  %indvars.iv = phi i64 [ %indvars.iv.next, %Gia_ObjIsPi.exit.thread ], [ 1, %.lr.ph ]
  %31 = getelementptr inbounds nuw %struct.Vta_Obj_t_, ptr %21, i64 %indvars.iv
  %32 = load i32, ptr %31, align 4, !tbaa !64
  %33 = sext i32 %32 to i64
  %34 = getelementptr inbounds %struct.Gia_Obj_t_, ptr %.val30, i64 %33
  %.val32 = load i64, ptr %34, align 4
  %35 = and i64 %.val32, 2684354559
  %narrow.i.not.i = icmp eq i64 %35, 2684354559
  br i1 %narrow.i.not.i, label %Gia_ObjIsPi.exit, label %Gia_ObjIsPi.exit.thread

Gia_ObjIsPi.exit:                                 ; preds = %.lr.ph.split
  %36 = lshr i64 %.val32, 32
  %37 = trunc nuw i64 %36 to i32
  %38 = and i32 %37, 536870911
  %.val.i = load i32, ptr %24, align 8, !tbaa !40
  %.val3.i = load ptr, ptr %25, align 8, !tbaa !54
  %39 = getelementptr i8, ptr %.val3.i, i64 4
  %.val3.val.i = load i32, ptr %39, align 4, !tbaa !15
  %40 = sub nsw i32 %.val3.val.i, %.val.i
  %.not = icmp slt i32 %38, %40
  br i1 %.not, label %41, label %Gia_ObjIsPi.exit.thread

41:                                               ; preds = %Gia_ObjIsPi.exit
  %42 = load ptr, ptr %26, align 8, !tbaa !66
  %43 = getelementptr i8, ptr %42, i64 288
  %.val34 = load ptr, ptr %43, align 8, !tbaa !67
  %44 = getelementptr inbounds nuw i32, ptr %.val34, i64 %indvars.iv
  %45 = load i32, ptr %44, align 4, !tbaa !10
  %.not36 = icmp eq i32 %45, 1
  br i1 %.not36, label %46, label %Gia_ObjIsPi.exit.thread

46:                                               ; preds = %41
  %47 = load i32, ptr %28, align 4, !tbaa !79
  %48 = getelementptr inbounds nuw i8, ptr %31, i64 4
  %49 = load i32, ptr %48, align 4, !tbaa !80
  %50 = load i32, ptr %29, align 4, !tbaa !81
  %51 = mul nsw i32 %50, %49
  %52 = add i32 %47, %38
  %53 = add i32 %52, %51
  %54 = and i32 %53, 31
  %55 = shl nuw i32 1, %54
  %56 = ashr i32 %53, 5
  %57 = sext i32 %56 to i64
  %58 = getelementptr inbounds i32, ptr %27, i64 %57
  %59 = load i32, ptr %58, align 4, !tbaa !10
  %60 = or i32 %55, %59
  store i32 %60, ptr %58, align 4, !tbaa !10
  %.pre = load i32, ptr %17, align 8, !tbaa !61
  br label %Gia_ObjIsPi.exit.thread

Gia_ObjIsPi.exit.thread:                          ; preds = %.lr.ph.split, %Gia_ObjIsPi.exit, %41, %46
  %61 = phi i32 [ %30, %.lr.ph.split ], [ %30, %Gia_ObjIsPi.exit ], [ %30, %41 ], [ %.pre, %46 ]
  %indvars.iv.next = add nuw nsw i64 %indvars.iv, 1
  %62 = sext i32 %61 to i64
  %63 = icmp slt i64 %indvars.iv.next, %62
  br i1 %63, label %.lr.ph.split, label %.critedge, !llvm.loop !82

.critedge:                                        ; preds = %Gia_ObjIsPi.exit.thread, %.lr.ph, %1
  ret ptr %12
}